; Function Attrs: mustprogress uwtable
define internal fastcc void @_ZN12rewriter_tplIN6spacer12_GLOBAL__N_130limit_denominator_rewriter_cfgEE5resetEv(ptr noundef nonnull align 8 dereferenceable(536) %0) unnamed_addr #4 align 2 {
  tail call void @_ZN13rewriter_core5resetEv(ptr noundef nonnull align 8 dereferenceable(144) %0)
  %2 = getelementptr inbounds nuw i8, ptr %0, i64 160
  %3 = load ptr, ptr %2, align 8, !tbaa !119
  %.not.i = icmp eq ptr %3, null
  br i1 %.not.i, label %_ZN6vectorIP4exprLb0EjE5resetEv.exit, label %4

4:                                                ; preds = %1
  %5 = getelementptr inbounds i8, ptr %3, i64 -4
  store i32 0, ptr %5, align 4, !tbaa !127
  br label %_ZN6vectorIP4exprLb0EjE5resetEv.exit

_ZN6vectorIP4exprLb0EjE5resetEv.exit:             ; preds = %1, %4
  %6 = getelementptr inbounds nuw i8, ptr %0, i64 528
  %7 = load ptr, ptr %6, align 8, !tbaa !126
  %.not.i1 = icmp eq ptr %7, null
  br i1 %.not.i1, label %_ZN6vectorIjLb0EjE5resetEv.exit, label %8

8:                                                ; preds = %_ZN6vectorIP4exprLb0EjE5resetEv.exit
  %9 = getelementptr inbounds i8, ptr %7, i64 -4
  store i32 0, ptr %9, align 4, !tbaa !127
  br label %_ZN6vectorIjLb0EjE5resetEv.exit

_ZN6vectorIjLb0EjE5resetEv.exit:                  ; preds = %_ZN6vectorIP4exprLb0EjE5resetEv.exit, %8
  %10 = getelementptr inbounds nuw i8, ptr %0, i64 168
  tail call void @_ZN13rewriter_core5resetEv(ptr noundef nonnull align 8 dereferenceable(144) %10)
  %11 = getelementptr inbounds nuw i8, ptr %0, i64 328
  tail call void @_ZN13rewriter_core5resetEv(ptr noundef nonnull align 8 dereferenceable(144) %11)
  ret void
}